target datalayout = "e-m:e-p270:32:32-p271:32:32-p272:64:64-i64:64-i128:128-f80:128-n8:16:32:64-S128"
target triple = "x86_64-unknown-linux-gnu"

%"class.std::__cxx11::basic_string" = type { %"struct.std::__cxx11::basic_string<char>::_Alloc_hider", i64, %union.anon }
%"struct.std::__cxx11::basic_string<char>::_Alloc_hider" = type { ptr }
%union.anon = type { i64, [8 x i8] }
%"class.facebook::velox::common::Filter" = type { %"class.facebook::velox::ISerializable", i8, i8, i32 }
%"class.facebook::velox::ISerializable" = type { ptr }
%"class.std::basic_string_view" = type { i64, ptr }
%"class.folly::Range" = type { ptr, ptr }
%"struct.folly::dynamic" = type { i32, %"union.folly::dynamic::Data" }
%"union.folly::dynamic::Data" = type { %"class.std::__cxx11::basic_string" }
%"class.facebook::velox::common::FloatingPointRange" = type { %"class.facebook::velox::common::AbstractRange.base", float, float, [4 x i8] }
%"class.facebook::velox::common::AbstractRange.base" = type <{ %"class.facebook::velox::common::Filter", i8, i8, i8, i8 }>

@.str.12 = private unnamed_addr constant [11 x i8] c"FloatRange\00", align 1
@.str.31 = private unnamed_addr constant [6 x i8] c"lower\00", align 1
@.str.32 = private unnamed_addr constant [6 x i8] c"upper\00", align 1

; Function Attrs: mustprogress nounwind uwtable
define linkonce_odr noundef i64 @_ZN5folly6detail25constexpr_strlen_internalIcLm0EEEmPKT_i(ptr noundef %s, i32 noundef %0) #3 comdat {
entry:
  %s.addr = alloca ptr, align 8
  %.addr = alloca i32, align 4
  store ptr %s, ptr %s.addr, align 8
  store i32 %0, ptr %.addr, align 4
  %1 = load ptr, ptr %s.addr, align 8
  %call = call i64 @strlen(ptr noundef %1) #13
  ret i64 %call
}

; Function Attrs: mustprogress nounwind uwtable
define linkonce_odr noundef ptr @_ZN5folly7dynamic11GetAddrImplIdE3getERNS0_4DataE(ptr noundef nonnull align 8 dereferenceable(32) %d) #3 comdat align 2 {
entry:
  %d.addr = alloca ptr, align 8
  store ptr %d, ptr %d.addr, align 8
  %0 = load ptr, ptr %d.addr, align 8
  ret ptr %0
}

; Function Attrs: mustprogress nounwind uwtable
define linkonce_odr void @_ZN5folly7dynamic4DataD2Ev(ptr noundef nonnull align 8 dereferenceable(32) %this) unnamed_addr #3 comdat align 2 {
entry:
  %this.addr = alloca ptr, align 8
  store ptr %this, ptr %this.addr, align 8
  ret void
}

; Function Attrs: mustprogress nounwind uwtable
define linkonce_odr noundef i64 @_ZN5folly16constexpr_strlenIcEEmPKT_(ptr noundef %s) #3 comdat {
entry:
  %s.addr = alloca ptr, align 8
  store ptr %s, ptr %s.addr, align 8
  %0 = load ptr, ptr %s.addr, align 8
  %call = call noundef i64 @_ZN5folly6detail25constexpr_strlen_internalIcLm0EEEmPKT_i(ptr noundef %0, i32 noundef 0) #13
  ret i64 %call
}

; Function Attrs: mustprogress nounwind uwtable
define linkonce_odr noundef ptr @_ZN5folly7dynamic10getAddressIdEEPT_v(ptr noundef nonnull align 8 dereferenceable(40) %this) #3 comdat align 2 {
entry:
  %this.addr = alloca ptr, align 8
  store ptr %this, ptr %this.addr, align 8
  %this1 = load ptr, ptr %this.addr, align 8
  %u_ = getelementptr inbounds %"struct.folly::dynamic", ptr %this1, i32 0, i32 1
  %call = call noundef ptr @_ZN5folly7dynamic11GetAddrImplIdE3getERNS0_4DataE(ptr noundef nonnull align 8 dereferenceable(32) %u_) #13
  ret ptr %call
}

; Function Attrs: mustprogress nounwind uwtable
define linkonce_odr void @_ZN5folly7dynamic4DataC2Ev(ptr noundef nonnull align 8 dereferenceable(32) %this) unnamed_addr #3 comdat align 2 {
entry:
  %this.addr = alloca ptr, align 8
  store ptr %this, ptr %this.addr, align 8
  %this1 = load ptr, ptr %this.addr, align 8
  store ptr null, ptr %this1, align 8
  ret void
}

; Function Attrs: noreturn nounwind uwtable
define linkonce_odr hidden void @__clang_call_terminate(ptr noundef %0) #10 comdat {
  %2 = call ptr @__cxa_begin_catch(ptr %0) #13
  call void @_ZSt9terminatev() #33
  unreachable
}

; Function Attrs: mustprogress nounwind uwtable
define linkonce_odr noundef i64 @_ZNSt11char_traitsIcE6lengthEPKc(ptr noundef %__s) #3 comdat align 2 {
entry:
  %__s.addr = alloca ptr, align 8
  store ptr %__s, ptr %__s.addr, align 8
  %0 = load ptr, ptr %__s.addr, align 8
  %call = call i64 @strlen(ptr noundef %0) #13
  ret i64 %call
}

; Function Attrs: mustprogress nounwind uwtable
define linkonce_odr void @_ZN5folly7dynamicD2Ev(ptr noundef nonnull align 8 dereferenceable(40) %this) unnamed_addr #3 comdat align 2 {
entry:
  %this.addr = alloca ptr, align 8
  store ptr %this, ptr %this.addr, align 8
  %this1 = load ptr, ptr %this.addr, align 8
  call void @_ZN5folly7dynamic7destroyEv(ptr noundef nonnull align 8 dereferenceable(40) %this1) #13
  %u_ = getelementptr inbounds %"struct.folly::dynamic", ptr %this1, i32 0, i32 1
  call void @_ZN5folly7dynamic4DataD2Ev(ptr noundef nonnull align 8 dereferenceable(32) %u_) #13
  ret void
}

; Function Attrs: mustprogress nounwind uwtable
define linkonce_odr void @_ZN5folly5RangeIPKcEC2ES2_(ptr noundef nonnull align 8 dereferenceable(16) %this, ptr noundef %str) unnamed_addr #3 comdat align 2 {
entry:
  %this.addr = alloca ptr, align 8
  %str.addr = alloca ptr, align 8
  store ptr %this, ptr %this.addr, align 8
  store ptr %str, ptr %str.addr, align 8
  %this1 = load ptr, ptr %this.addr, align 8
  %b_ = getelementptr inbounds %"class.folly::Range", ptr %this1, i32 0, i32 0
  %0 = load ptr, ptr %str.addr, align 8
  store ptr %0, ptr %b_, align 8
  %e_ = getelementptr inbounds %"class.folly::Range", ptr %this1, i32 0, i32 1
  %1 = load ptr, ptr %str.addr, align 8
  %2 = load ptr, ptr %str.addr, align 8
  %call = call noundef i64 @_ZN5folly16constexpr_strlenIcEEmPKT_(ptr noundef %2) #13
  %add.ptr = getelementptr inbounds i8, ptr %1, i64 %call
  store ptr %add.ptr, ptr %e_, align 8
  ret void
}

; Function Attrs: mustprogress uwtable
define linkonce_odr void @_ZN5folly7dynamicC2IfdEET_(ptr noundef nonnull align 8 dereferenceable(40) %this, float noundef %t) unnamed_addr #0 comdat align 2 {
entry:
  %this.addr = alloca ptr, align 8
  %t.addr = alloca float, align 4
  store ptr %this, ptr %this.addr, align 8
  store float %t, ptr %t.addr, align 4
  %this1 = load ptr, ptr %this.addr, align 8
  %u_ = getelementptr inbounds %"struct.folly::dynamic", ptr %this1, i32 0, i32 1
  call void @_ZN5folly7dynamic4DataC2Ev(ptr noundef nonnull align 8 dereferenceable(32) %u_)
  %type_ = getelementptr inbounds %"struct.folly::dynamic", ptr %this1, i32 0, i32 0
  store i32 3, ptr %type_, align 8
  %call = call noundef ptr @_ZN5folly7dynamic10getAddressIdEEPT_v(ptr noundef nonnull align 8 dereferenceable(40) %this1) #13
  %0 = load float, ptr %t.addr, align 4
  %conv = fpext float %0 to double
  store double %conv, ptr %call, align 8
  ret void
}

; Function Attrs: mustprogress nounwind uwtable
define linkonce_odr void @_ZNSt17basic_string_viewIcSt11char_traitsIcEEC2EPKc(ptr noundef nonnull align 8 dereferenceable(16) %this, ptr noundef nonnull %__str) unnamed_addr #3 comdat align 2 personality ptr @__gxx_personality_v0 {
entry:
  %this.addr = alloca ptr, align 8
  %__str.addr = alloca ptr, align 8
  store ptr %this, ptr %this.addr, align 8
  store ptr %__str, ptr %__str.addr, align 8
  %this1 = load ptr, ptr %this.addr, align 8
  %_M_len = getelementptr inbounds %"class.std::basic_string_view", ptr %this1, i32 0, i32 0
  %0 = load ptr, ptr %__str.addr, align 8
  %call = invoke noundef i64 @_ZNSt11char_traitsIcE6lengthEPKc(ptr noundef %0)
          to label %invoke.cont unwind label %terminate.lpad

invoke.cont:                                      ; preds = %entry
  store i64 %call, ptr %_M_len, align 8
  %_M_str = getelementptr inbounds %"class.std::basic_string_view", ptr %this1, i32 0, i32 1
  %1 = load ptr, ptr %__str.addr, align 8
  store ptr %1, ptr %_M_str, align 8
  ret void

terminate.lpad:                                   ; preds = %entry
  %2 = landingpad { ptr, i32 }
          catch ptr null
  %3 = extractvalue { ptr, i32 } %2, 0
  call void @__clang_call_terminate(ptr %3) #33
  unreachable
}

; Function Attrs: mustprogress uwtable
define void @_ZNK8facebook5velox6common18FloatingPointRangeIfE9serializeEv(ptr noalias sret(%"struct.folly::dynamic") align 8 %agg.result, ptr noundef nonnull align 8 dereferenceable(32) %this) unnamed_addr #0 align 2 personality ptr @__gxx_personality_v0 {
entry:
  %result.ptr = alloca ptr, align 8
  %this.addr = alloca ptr, align 8
  %nrvo = alloca i1, align 1
  %agg.tmp = alloca %"class.std::basic_string_view", align 8
  %ref.tmp = alloca %"struct.folly::dynamic", align 8
  %exn.slot = alloca ptr, align 8
  %ehselector.slot = alloca i32, align 4
  %agg.tmp2 = alloca %"class.folly::Range", align 8
  %ref.tmp7 = alloca %"struct.folly::dynamic", align 8
  %agg.tmp9 = alloca %"class.folly::Range", align 8
  store ptr %agg.result, ptr %result.ptr, align 8
  store ptr %this, ptr %this.addr, align 8
  %this1 = load ptr, ptr %this.addr, align 8
  store i1 false, ptr %nrvo, align 1
  call void @_ZNSt17basic_string_viewIcSt11char_traitsIcEEC2EPKc(ptr noundef nonnull align 8 dereferenceable(16) %agg.tmp, ptr noundef @.str.12) #13
  %0 = getelementptr inbounds { i64, ptr }, ptr %agg.tmp, i32 0, i32 0
  %1 = load i64, ptr %0, align 8
  %2 = getelementptr inbounds { i64, ptr }, ptr %agg.tmp, i32 0, i32 1
  %3 = load ptr, ptr %2, align 8
  call void @_ZNK8facebook5velox6common13AbstractRange13serializeBaseESt17basic_string_viewIcSt11char_traitsIcEE(ptr sret(%"struct.folly::dynamic") align 8 %agg.result, ptr noundef nonnull align 8 dereferenceable(20) %this1, i64 %1, ptr %3)
  %lower_ = getelementptr inbounds %"class.facebook::velox::common::FloatingPointRange", ptr %this1, i32 0, i32 1
  %4 = load float, ptr %lower_, align 4
  invoke void @_ZN5folly7dynamicC2IfdEET_(ptr noundef nonnull align 8 dereferenceable(40) %ref.tmp, float noundef %4)
          to label %invoke.cont unwind label %lpad

invoke.cont:                                      ; preds = %entry
  invoke void @_ZN5folly5RangeIPKcEC2ES2_(ptr noundef nonnull align 8 dereferenceable(16) %agg.tmp2, ptr noundef @.str.31)
          to label %invoke.cont4 unwind label %lpad3

invoke.cont4:                                     ; preds = %invoke.cont
  %5 = getelementptr inbounds { ptr, ptr }, ptr %agg.tmp2, i32 0, i32 0
  %6 = load ptr, ptr %5, align 8
  %7 = getelementptr inbounds { ptr, ptr }, ptr %agg.tmp2, i32 0, i32 1
  %8 = load ptr, ptr %7, align 8
  %call = invoke noundef nonnull align 8 dereferenceable(40) ptr @_ZNR5folly7dynamicixENS_5RangeIPKcEE(ptr noundef nonnull align 8 dereferenceable(40) %agg.result, ptr %6, ptr %8)
          to label %invoke.cont5 unwind label %lpad3

invoke.cont5:                                     ; preds = %invoke.cont4
  %call6 = call noundef nonnull align 8 dereferenceable(40) ptr @_ZN5folly7dynamicaSEOS0_(ptr noundef nonnull align 8 dereferenceable(40) %call, ptr noundef nonnull align 8 dereferenceable(40) %ref.tmp) #13
  call void @_ZN5folly7dynamicD2Ev(ptr noundef nonnull align 8 dereferenceable(40) %ref.tmp) #13
  %upper_ = getelementptr inbounds %"class.facebook::velox::common::FloatingPointRange", ptr %this1, i32 0, i32 2
  %9 = load float, ptr %upper_, align 8
  invoke void @_ZN5folly7dynamicC2IfdEET_(ptr noundef nonnull align 8 dereferenceable(40) %ref.tmp7, float noundef %9)
          to label %invoke.cont8 unwind label %lpad

invoke.cont8:                                     ; preds = %invoke.cont5
  invoke void @_ZN5folly5RangeIPKcEC2ES2_(ptr noundef nonnull align 8 dereferenceable(16) %agg.tmp9, ptr noundef @.str.32)
          to label %invoke.cont11 unwind label %lpad10

invoke.cont11:                                    ; preds = %invoke.cont8
  %10 = getelementptr inbounds { ptr, ptr }, ptr %agg.tmp9, i32 0, i32 0
  %11 = load ptr, ptr %10, align 8
  %12 = getelementptr inbounds { ptr, ptr }, ptr %agg.tmp9, i32 0, i32 1
  %13 = load ptr, ptr %12, align 8
  %call13 = invoke noundef nonnull align 8 dereferenceable(40) ptr @_ZNR5folly7dynamicixENS_5RangeIPKcEE(ptr noundef nonnull align 8 dereferenceable(40) %agg.result, ptr %11, ptr %13)
          to label %invoke.cont12 unwind label %lpad10

invoke.cont12:                                    ; preds = %invoke.cont11
  %call14 = call noundef nonnull align 8 dereferenceable(40) ptr @_ZN5folly7dynamicaSEOS0_(ptr noundef nonnull align 8 dereferenceable(40) %call13, ptr noundef nonnull align 8 dereferenceable(40) %ref.tmp7) #13
  call void @_ZN5folly7dynamicD2Ev(ptr noundef nonnull align 8 dereferenceable(40) %ref.tmp7) #13
  store i1 true, ptr %nrvo, align 1
  %nrvo.val = load i1, ptr %nrvo, align 1
  br i1 %nrvo.val, label %nrvo.skipdtor, label %nrvo.unused

lpad:                                             ; preds = %invoke.cont5, %entry
  %14 = landingpad { ptr, i32 }
          cleanup
  %15 = extractvalue { ptr, i32 } %14, 0
  store ptr %15, ptr %exn.slot, align 8
  %16 = extractvalue { ptr, i32 } %14, 1
  store i32 %16, ptr %ehselector.slot, align 4
  br label %ehcleanup

lpad3:                                            ; preds = %invoke.cont4, %invoke.cont
  %17 = landingpad { ptr, i32 }
          cleanup
  %18 = extractvalue { ptr, i32 } %17, 0
  store ptr %18, ptr %exn.slot, align 8
  %19 = extractvalue { ptr, i32 } %17, 1
  store i32 %19, ptr %ehselector.slot, align 4
  call void @_ZN5folly7dynamicD2Ev(ptr noundef nonnull align 8 dereferenceable(40) %ref.tmp) #13
  br label %ehcleanup

lpad10:                                           ; preds = %invoke.cont11, %invoke.cont8
  %20 = landingpad { ptr, i32 }
          cleanup
  %21 = extractvalue { ptr, i32 } %20, 0
  store ptr %21, ptr %exn.slot, align 8
  %22 = extractvalue { ptr, i32 } %20, 1
  store i32 %22, ptr %ehselector.slot, align 4
  call void @_ZN5folly7dynamicD2Ev(ptr noundef nonnull align 8 dereferenceable(40) %ref.tmp7) #13
  br label %ehcleanup

nrvo.unused:                                      ; preds = %invoke.cont12
  call void @_ZN5folly7dynamicD2Ev(ptr noundef nonnull align 8 dereferenceable(40) %agg.result) #13
  br label %nrvo.skipdtor

nrvo.skipdtor:                                    ; preds = %nrvo.unused, %invoke.cont12
  ret void

ehcleanup:                                        ; preds = %lpad10, %lpad3, %lpad
  call void @_ZN5folly7dynamicD2Ev(ptr noundef nonnull align 8 dereferenceable(40) %agg.result) #13
  br label %eh.resume

eh.resume:                                        ; preds = %ehcleanup
  %exn = load ptr, ptr %exn.slot, align 8
  %sel = load i32, ptr %ehselector.slot, align 4
  %lpad.val = insertvalue { ptr, i32 } poison, ptr %exn, 0
  %lpad.val15 = insertvalue { ptr, i32 } %lpad.val, i32 %sel, 1
  resume { ptr, i32 } %lpad.val15
}