; Function Attrs: mustprogress uwtable
define void @_ZNK8facebook5velox6common18FloatingPointRangeIfE9serializeEv(ptr noalias sret(%"struct.folly::dynamic") align 8 %agg.result, ptr noundef nonnull align 8 dereferenceable(32) %this) unnamed_addr #0 align 2 personality ptr @__gxx_personality_v0 {
invoke.cont:
  %ref.tmp = alloca %"struct.folly::dynamic", align 8
  %ref.tmp7 = alloca %"struct.folly::dynamic", align 8
  tail call void @_ZNK8facebook5velox6common13AbstractRange13serializeBaseESt17basic_string_viewIcSt11char_traitsIcEE(ptr sret(%"struct.folly::dynamic") align 8 %agg.result, ptr noundef nonnull align 8 dereferenceable(20) %this, i64 10, ptr nonnull @.str.12)
  %lower_ = getelementptr inbounds i8, ptr %this, i64 20
  %0 = load float, ptr %lower_, align 4
  %u_.i = getelementptr inbounds i8, ptr %ref.tmp, i64 8
  store i32 3, ptr %ref.tmp, align 8
  %conv.i = fpext float %0 to double
  store double %conv.i, ptr %u_.i, align 8
  %call = invoke noundef nonnull align 8 dereferenceable(40) ptr @_ZNR5folly7dynamicixENS_5RangeIPKcEE(ptr noundef nonnull align 8 dereferenceable(40) %agg.result, ptr nonnull @.str.31, ptr nonnull getelementptr inbounds ([6 x i8], ptr @.str.31, i64 0, i64 5))
          to label %invoke.cont8 unwind label %lpad3

invoke.cont8:                                     ; preds = %invoke.cont
  %call6 = call noundef nonnull align 8 dereferenceable(40) ptr @_ZN5folly7dynamicaSEOS0_(ptr noundef nonnull align 8 dereferenceable(40) %call, ptr noundef nonnull align 8 dereferenceable(40) %ref.tmp) #34
  call void @_ZN5folly7dynamic7destroyEv(ptr noundef nonnull align 8 dereferenceable(40) %ref.tmp) #34
  %upper_ = getelementptr inbounds i8, ptr %this, i64 24
  %1 = load float, ptr %upper_, align 8
  %u_.i2 = getelementptr inbounds i8, ptr %ref.tmp7, i64 8
  store i32 3, ptr %ref.tmp7, align 8
  %conv.i3 = fpext float %1 to double
  store double %conv.i3, ptr %u_.i2, align 8
  %call13 = invoke noundef nonnull align 8 dereferenceable(40) ptr @_ZNR5folly7dynamicixENS_5RangeIPKcEE(ptr noundef nonnull align 8 dereferenceable(40) %agg.result, ptr nonnull @.str.32, ptr nonnull getelementptr inbounds ([6 x i8], ptr @.str.32, i64 0, i64 5))
          to label %invoke.cont12 unwind label %lpad10

invoke.cont12:                                    ; preds = %invoke.cont8
  %call14 = call noundef nonnull align 8 dereferenceable(40) ptr @_ZN5folly7dynamicaSEOS0_(ptr noundef nonnull align 8 dereferenceable(40) %call13, ptr noundef nonnull align 8 dereferenceable(40) %ref.tmp7) #34
  call void @_ZN5folly7dynamic7destroyEv(ptr noundef nonnull align 8 dereferenceable(40) %ref.tmp7) #34
  ret void

lpad3:                                            ; preds = %invoke.cont
  %2 = landingpad { ptr, i32 }
          cleanup
  br label %ehcleanup

lpad10:                                           ; preds = %invoke.cont8
  %3 = landingpad { ptr, i32 }
          cleanup
  br label %ehcleanup

ehcleanup:                                        ; preds = %lpad10, %lpad3
  %ref.tmp7.sink = phi ptr [ %ref.tmp7, %lpad10 ], [ %ref.tmp, %lpad3 ]
  %.pn = phi { ptr, i32 } [ %3, %lpad10 ], [ %2, %lpad3 ]
  call void @_ZN5folly7dynamic7destroyEv(ptr noundef nonnull align 8 dereferenceable(40) %ref.tmp7.sink) #34
  call void @_ZN5folly7dynamic7destroyEv(ptr noundef nonnull align 8 dereferenceable(40) %agg.result) #34
  resume { ptr, i32 } %.pn
}